   1               		.file	"LCD.cpp"
   2               	__SREG__ = 0x3f
   3               	__SP_H__ = 0x3e
   4               	__SP_L__ = 0x3d
   5               	__CCP__  = 0x34
   6               	__tmp_reg__ = 0
   7               	__zero_reg__ = 1
  15               	.Ltext0:
  16               	.global	_ZN3LCDC2Ev
  18               	_ZN3LCDC2Ev:
  19               	.LFB3:
  20               	.LM1:
  21               	.LVL0:
  22               	/* prologue: function */
  23               	/* frame size = 0 */
  24               	/* epilogue start */
  25               	.LM2:
  26 0000 0895      		ret
  27               	.LFE3:
  29               	.global	_ZN3LCDC1Ev
  31               	_ZN3LCDC1Ev:
  32               	.LFB4:
  33               	.LM3:
  34               	.LVL1:
  35               	/* prologue: function */
  36               	/* frame size = 0 */
  37               	/* epilogue start */
  38               	.LM4:
  39 0002 0895      		ret
  40               	.LFE4:
  42               	.global	_ZN3LCD22send_character_to_pinsEc
  44               	_ZN3LCD22send_character_to_pinsEc:
  45               	.LFB5:
  46               	.LM5:
  47               	.LVL2:
  48 0004 1F93      		push r17
  49 0006 DF93      		push r29
  50 0008 CF93      		push r28
  51 000a CDB7      		in r28,__SP_L__
  52 000c DEB7      		in r29,__SP_H__
  53 000e 2897      		sbiw r28,8
  54 0010 0FB6      		in __tmp_reg__,__SREG__
  55 0012 F894      		cli
  56 0014 DEBF      		out __SP_H__,r29
  57 0016 0FBE      		out __SREG__,__tmp_reg__
  58 0018 CDBF      		out __SP_L__,r28
  59               	/* prologue: function */
  60               	/* frame size = 8 */
  61               	.LM6:
  62 001a 862F      		mov r24,r22
  63               	.LVL3:
  64 001c 60FF      		sbrs r22,0
  65 001e 00C0      		rjmp .L6
  66               	.LVL4:
  67 0020 969A      		sbi 50-32,6
  68 0022 00C0      		rjmp .L7
  69               	.L6:
  70               	.LM7:
  71 0024 9698      		cbi 50-32,6
  72               	.L7:
  73               	.LM8:
  74 0026 81FF      		sbrs r24,1
  75 0028 00C0      		rjmp .L8
  76 002a 979A      		sbi 50-32,7
  77 002c 00C0      		rjmp .L9
  78               	.L8:
  79               	.LM9:
  80 002e 9798      		cbi 50-32,7
  81               	.L9:
  82               	.LM10:
  83 0030 82FF      		sbrs r24,2
  84 0032 00C0      		rjmp .L10
  85 0034 AA9A      		sbi 53-32,2
  86 0036 00C0      		rjmp .L11
  87               	.L10:
  88               	.LM11:
  89 0038 AA98      		cbi 53-32,2
  90               	.L11:
  91               	.LM12:
  92 003a 83FF      		sbrs r24,3
  93 003c 00C0      		rjmp .L12
  94 003e AB9A      		sbi 53-32,3
  95 0040 00C0      		rjmp .L13
  96               	.L12:
  97               	.LM13:
  98 0042 AB98      		cbi 53-32,3
  99               	.L13:
 100               	.LM14:
 101 0044 84FF      		sbrs r24,4
 102 0046 00C0      		rjmp .L14
 103 0048 AC9A      		sbi 53-32,4
 104 004a 00C0      		rjmp .L15
 105               	.L14:
 106               	.LM15:
 107 004c AC98      		cbi 53-32,4
 108               	.L15:
 109               	.LM16:
 110 004e 85FF      		sbrs r24,5
 111 0050 00C0      		rjmp .L16
 112 0052 AD9A      		sbi 53-32,5
 113 0054 00C0      		rjmp .L17
 114               	.L16:
 115               	.LM17:
 116 0056 AD98      		cbi 53-32,5
 117               	.L17:
 118               	.LM18:
 119 0058 86FF      		sbrs r24,6
 120 005a 00C0      		rjmp .L18
 121 005c AE9A      		sbi 53-32,6
 122 005e 00C0      		rjmp .L19
 123               	.L18:
 124               	.LM19:
 125 0060 AE98      		cbi 53-32,6
 126               	.L19:
 127               	.LM20:
 128 0062 67FF      		sbrs r22,7
 129 0064 00C0      		rjmp .L20
 130               	.LVL5:
 131 0066 AF9A      		sbi 53-32,7
 132 0068 00C0      		rjmp .L21
 133               	.L20:
 134               	.LM21:
 135 006a AF98      		cbi 53-32,7
 136               	.L21:
 137               	.LBB16:
 138               	.LBB17:
 139               	.LBB18:
 140               	.LM22:
 141 006c 1982      		std Y+1,__zero_reg__
 142               	.LVL6:
 143 006e 1A82      		std Y+2,__zero_reg__
 144               	.LVL7:
 145 0070 1B82      		std Y+3,__zero_reg__
 146               	.LVL8:
 147 0072 1C82      		std Y+4,__zero_reg__
 148               	.LVL9:
 149 0074 1D82      		std Y+5,__zero_reg__
 150               	.LVL10:
 151 0076 1E82      		std Y+6,__zero_reg__
 152               	.LVL11:
 153 0078 1F82      		std Y+7,__zero_reg__
 154               	.LVL12:
 155 007a 1886      		std Y+8,__zero_reg__
 156               	.LVL13:
 157 007c 00C0      		rjmp .L22
 158               	.LVL14:
 159               	.L40:
 160 007e 8981      		ldd r24,Y+1
 161 0080 2A81      		ldd r18,Y+2
 162 0082 3B81      		ldd r19,Y+3
 163 0084 4C81      		ldd r20,Y+4
 164 0086 6D81      		ldd r22,Y+5
 165 0088 EE81      		ldd r30,Y+6
 166 008a AF81      		ldd r26,Y+7
 167 008c 1885      		ldd r17,Y+8
 168 008e B82F      		mov r27,r24
 169 0090 BF5F      		subi r27,lo8(-(1))
 170 0092 91E0      		ldi r25,lo8(1)
 171 0094 B817      		cp r27,r24
 172 0096 00F0      		brlo .L23
 173 0098 90E0      		ldi r25,lo8(0)
 174               	.L23:
 175 009a F92F      		mov r31,r25
 176 009c F20F      		add r31,r18
 177 009e 81E0      		ldi r24,lo8(1)
 178 00a0 F217      		cp r31,r18
 179 00a2 00F0      		brlo .L25
 180 00a4 80E0      		ldi r24,lo8(0)
 181               	.L25:
 182 00a6 782F      		mov r23,r24
 183 00a8 730F      		add r23,r19
 184 00aa 81E0      		ldi r24,lo8(1)
 185 00ac 7317      		cp r23,r19
 186 00ae 00F0      		brlo .L27
 187 00b0 80E0      		ldi r24,lo8(0)
 188               	.L27:
 189 00b2 582F      		mov r21,r24
 190 00b4 540F      		add r21,r20
 191 00b6 81E0      		ldi r24,lo8(1)
 192 00b8 5417      		cp r21,r20
 193 00ba 00F0      		brlo .L29
 194 00bc 80E0      		ldi r24,lo8(0)
 195               	.L29:
 196 00be 382F      		mov r19,r24
 197 00c0 360F      		add r19,r22
 198 00c2 81E0      		ldi r24,lo8(1)
 199 00c4 3617      		cp r19,r22
 200 00c6 00F0      		brlo .L31
 201 00c8 80E0      		ldi r24,lo8(0)
 202               	.L31:
 203 00ca 282F      		mov r18,r24
 204 00cc 2E0F      		add r18,r30
 205 00ce 81E0      		ldi r24,lo8(1)
 206 00d0 2E17      		cp r18,r30
 207 00d2 00F0      		brlo .L33
 208 00d4 80E0      		ldi r24,lo8(0)
 209               	.L33:
 210 00d6 982F      		mov r25,r24
 211 00d8 9A0F      		add r25,r26
 212 00da 81E0      		ldi r24,lo8(1)
 213 00dc 9A17      		cp r25,r26
 214 00de 00F0      		brlo .L35
 215 00e0 80E0      		ldi r24,lo8(0)
 216               	.L35:
 217 00e2 810F      		add r24,r17
 218 00e4 B983      		std Y+1,r27
 219               	.LVL15:
 220 00e6 FA83      		std Y+2,r31
 221               	.LVL16:
 222 00e8 7B83      		std Y+3,r23
 223               	.LVL17:
 224 00ea 5C83      		std Y+4,r21
 225               	.LVL18:
 226 00ec 3D83      		std Y+5,r19
 227               	.LVL19:
 228 00ee 2E83      		std Y+6,r18
 229               	.LVL20:
 230 00f0 9F83      		std Y+7,r25
 231               	.LVL21:
 232 00f2 8887      		std Y+8,r24
 233               	.LVL22:
 234               	.L22:
 235 00f4 7981      		ldd r23,Y+1
 236 00f6 6A81      		ldd r22,Y+2
 237               	.LVL23:
 238 00f8 5B81      		ldd r21,Y+3
 239 00fa 4C81      		ldd r20,Y+4
 240 00fc 3D81      		ldd r19,Y+5
 241 00fe 2E81      		ldd r18,Y+6
 242 0100 9F81      		ldd r25,Y+7
 243 0102 8885      		ldd r24,Y+8
 244 0104 8823      		tst r24
 245 0106 01F4      		brne .L39
 246 0108 9923      		tst r25
 247 010a 01F4      		brne .L39
 248 010c 2223      		tst r18
 249 010e 01F4      		brne .L39
 250 0110 3323      		tst r19
 251 0112 01F4      		brne .L39
 252 0114 4423      		tst r20
 253 0116 01F4      		brne .L39
 254 0118 5523      		tst r21
 255 011a 01F4      		brne .L39
 256 011c 6623      		tst r22
 257 011e 01F4      		brne .L39
 258 0120 7436      		cpi r23,lo8(100)
 259 0122 00F4      		brsh .+2
 260 0124 00C0      		rjmp .L40
 261               	.L39:
 262               	.LBE18:
 263               	.LBE17:
 264               	.LBE16:
 265               	.LM23:
 266 0126 C298      		cbi 56-32,2
 267               	/* epilogue start */
 268               	.LM24:
 269 0128 2896      		adiw r28,8
 270 012a 0FB6      		in __tmp_reg__,__SREG__
 271 012c F894      		cli
 272 012e DEBF      		out __SP_H__,r29
 273 0130 0FBE      		out __SREG__,__tmp_reg__
 274 0132 CDBF      		out __SP_L__,r28
 275 0134 CF91      		pop r28
 276 0136 DF91      		pop r29
 277 0138 1F91      		pop r17
 278 013a 0895      		ret
 279               	.LFE5:
 281               	.global	_ZN3LCD5delayEy
 283               	_ZN3LCD5delayEy:
 284               	.LFB6:
 285               	.LM25:
 286               	.LVL24:
 287 013c 9F92      		push r9
 288 013e AF92      		push r10
 289 0140 BF92      		push r11
 290 0142 CF92      		push r12
 291 0144 DF92      		push r13
 292 0146 EF92      		push r14
 293 0148 FF92      		push r15
 294 014a 0F93      		push r16
 295               	.LVL25:
 296 014c 1F93      		push r17
 297 014e DF93      		push r29
 298 0150 CF93      		push r28
 299 0152 CDB7      		in r28,__SP_L__
 300 0154 DEB7      		in r29,__SP_H__
 301 0156 2897      		sbiw r28,8
 302 0158 0FB6      		in __tmp_reg__,__SREG__
 303 015a F894      		cli
 304 015c DEBF      		out __SP_H__,r29
 305 015e 0FBE      		out __SREG__,__tmp_reg__
 306 0160 CDBF      		out __SP_L__,r28
 307               	/* prologue: function */
 308               	/* frame size = 8 */
 309 0162 902E      		mov r9,r16
 310               	.LVL26:
 311 0164 A12E      		mov r10,r17
 312               	.LVL27:
 313 0166 B22E      		mov r11,r18
 314               	.LVL28:
 315 0168 C32E      		mov r12,r19
 316               	.LVL29:
 317 016a D42E      		mov r13,r20
 318               	.LVL30:
 319 016c E52E      		mov r14,r21
 320               	.LVL31:
 321 016e F62E      		mov r15,r22
 322               	.LVL32:
 323 0170 072F      		mov r16,r23
 324               	.LVL33:
 325               	.LBB19:
 326               	.LM26:
 327 0172 1982      		std Y+1,__zero_reg__
 328               	.LVL34:
 329 0174 1A82      		std Y+2,__zero_reg__
 330               	.LVL35:
 331 0176 1B82      		std Y+3,__zero_reg__
 332               	.LVL36:
 333 0178 1C82      		std Y+4,__zero_reg__
 334               	.LVL37:
 335 017a 1D82      		std Y+5,__zero_reg__
 336               	.LVL38:
 337 017c 1E82      		std Y+6,__zero_reg__
 338               	.LVL39:
 339 017e 1F82      		std Y+7,__zero_reg__
 340               	.LVL40:
 341 0180 1886      		std Y+8,__zero_reg__
 342               	.LVL41:
 343 0182 00C0      		rjmp .L42
 344               	.LVL42:
 345               	.L56:
 346 0184 8981      		ldd r24,Y+1
 347 0186 EA81      		ldd r30,Y+2
 348 0188 FB81      		ldd r31,Y+3
 349 018a AC81      		ldd r26,Y+4
 350 018c 2D81      		ldd r18,Y+5
 351 018e 4E81      		ldd r20,Y+6
 352 0190 6F81      		ldd r22,Y+7
 353 0192 1885      		ldd r17,Y+8
 354 0194 782F      		mov r23,r24
 355 0196 7F5F      		subi r23,lo8(-(1))
 356 0198 91E0      		ldi r25,lo8(1)
 357 019a 7817      		cp r23,r24
 358 019c 00F0      		brlo .L43
 359 019e 90E0      		ldi r25,lo8(0)
 360               	.L43:
 361 01a0 592F      		mov r21,r25
 362 01a2 5E0F      		add r21,r30
 363 01a4 81E0      		ldi r24,lo8(1)
 364 01a6 5E17      		cp r21,r30
 365 01a8 00F0      		brlo .L45
 366 01aa 80E0      		ldi r24,lo8(0)
 367               	.L45:
 368 01ac 382F      		mov r19,r24
 369 01ae 3F0F      		add r19,r31
 370 01b0 81E0      		ldi r24,lo8(1)
 371 01b2 3F17      		cp r19,r31
 372 01b4 00F0      		brlo .L47
 373 01b6 80E0      		ldi r24,lo8(0)
 374               	.L47:
 375 01b8 B82F      		mov r27,r24
 376 01ba BA0F      		add r27,r26
 377 01bc 81E0      		ldi r24,lo8(1)
 378 01be BA17      		cp r27,r26
 379 01c0 00F0      		brlo .L49
 380 01c2 80E0      		ldi r24,lo8(0)
 381               	.L49:
 382 01c4 F82F      		mov r31,r24
 383 01c6 F20F      		add r31,r18
 384 01c8 81E0      		ldi r24,lo8(1)
 385 01ca F217      		cp r31,r18
 386 01cc 00F0      		brlo .L51
 387 01ce 80E0      		ldi r24,lo8(0)
 388               	.L51:
 389 01d0 E82F      		mov r30,r24
 390 01d2 E40F      		add r30,r20
 391 01d4 81E0      		ldi r24,lo8(1)
 392 01d6 E417      		cp r30,r20
 393 01d8 00F0      		brlo .L53
 394 01da 80E0      		ldi r24,lo8(0)
 395               	.L53:
 396 01dc 982F      		mov r25,r24
 397 01de 960F      		add r25,r22
 398 01e0 81E0      		ldi r24,lo8(1)
 399 01e2 9617      		cp r25,r22
 400 01e4 00F0      		brlo .L55
 401 01e6 80E0      		ldi r24,lo8(0)
 402               	.L55:
 403 01e8 810F      		add r24,r17
 404 01ea 7983      		std Y+1,r23
 405               	.LVL43:
 406 01ec 5A83      		std Y+2,r21
 407               	.LVL44:
 408 01ee 3B83      		std Y+3,r19
 409               	.LVL45:
 410 01f0 BC83      		std Y+4,r27
 411               	.LVL46:
 412 01f2 FD83      		std Y+5,r31
 413               	.LVL47:
 414 01f4 EE83      		std Y+6,r30
 415               	.LVL48:
 416 01f6 9F83      		std Y+7,r25
 417               	.LVL49:
 418 01f8 8887      		std Y+8,r24
 419               	.LVL50:
 420               	.L42:
 421 01fa 3981      		ldd r19,Y+1
 422 01fc 2A81      		ldd r18,Y+2
 423 01fe BB81      		ldd r27,Y+3
 424 0200 AC81      		ldd r26,Y+4
 425 0202 FD81      		ldd r31,Y+5
 426 0204 EE81      		ldd r30,Y+6
 427 0206 9F81      		ldd r25,Y+7
 428 0208 8885      		ldd r24,Y+8
 429               	.LVL51:
 430 020a 8017      		cp r24,r16
 431 020c 00F4      		brsh .+2
 432 020e 00C0      		rjmp .L56
 433 0210 0817      		cp r16,r24
 434 0212 01F4      		brne .L58
 435 0214 9F15      		cp r25,r15
 436 0216 00F4      		brsh .+2
 437 0218 00C0      		rjmp .L56
 438 021a F916      		cp r15,r25
 439 021c 01F4      		brne .L58
 440 021e EE15      		cp r30,r14
 441 0220 00F4      		brsh .+2
 442 0222 00C0      		rjmp .L56
 443 0224 EE16      		cp r14,r30
 444 0226 01F4      		brne .L58
 445 0228 FD15      		cp r31,r13
 446 022a 00F4      		brsh .+2
 447 022c 00C0      		rjmp .L56
 448 022e DF16      		cp r13,r31
 449 0230 01F4      		brne .L58
 450 0232 AC15      		cp r26,r12
 451 0234 00F4      		brsh .+2
 452 0236 00C0      		rjmp .L56
 453 0238 CA16      		cp r12,r26
 454 023a 01F4      		brne .L58
 455 023c BB15      		cp r27,r11
 456 023e 00F4      		brsh .+2
 457 0240 00C0      		rjmp .L56
 458 0242 BB16      		cp r11,r27
 459 0244 01F4      		brne .L58
 460 0246 2A15      		cp r18,r10
 461 0248 00F4      		brsh .+2
 462 024a 00C0      		rjmp .L56
 463 024c A216      		cp r10,r18
 464 024e 01F4      		brne .L58
 465 0250 3915      		cp r19,r9
 466 0252 00F4      		brsh .+2
 467 0254 00C0      		rjmp .L56
 468               	.L58:
 469               	/* epilogue start */
 470               	.LBE19:
 471               	.LM27:
 472 0256 2896      		adiw r28,8
 473 0258 0FB6      		in __tmp_reg__,__SREG__
 474 025a F894      		cli
 475 025c DEBF      		out __SP_H__,r29
 476 025e 0FBE      		out __SREG__,__tmp_reg__
 477 0260 CDBF      		out __SP_L__,r28
 478 0262 CF91      		pop r28
 479 0264 DF91      		pop r29
 480 0266 1F91      		pop r17
 481 0268 0F91      		pop r16
 482               	.LVL52:
 483 026a FF90      		pop r15
 484               	.LVL53:
 485 026c EF90      		pop r14
 486               	.LVL54:
 487 026e DF90      		pop r13
 488               	.LVL55:
 489 0270 CF90      		pop r12
 490               	.LVL56:
 491 0272 BF90      		pop r11
 492               	.LVL57:
 493 0274 AF90      		pop r10
 494               	.LVL58:
 495 0276 9F90      		pop r9
 496               	.LVL59:
 497 0278 0895      		ret
 498               	.LFE6:
 500               	.global	_ZN3LCD12command_modeEv
 502               	_ZN3LCD12command_modeEv:
 503               	.LFB7:
 504               	.LM28:
 505               	.LVL60:
 506               	/* prologue: function */
 507               	/* frame size = 0 */
 508               	.LM29:
 509 027a C098      		cbi 56-32,0
 510               	/* epilogue start */
 511               	.LM30:
 512 027c 0895      		ret
 513               	.LFE7:
 515               	.global	_ZN3LCD14character_modeEv
 517               	_ZN3LCD14character_modeEv:
 518               	.LFB8:
 519               	.LM31:
 520               	.LVL61:
 521               	/* prologue: function */
 522               	/* frame size = 0 */
 523               	.LM32:
 524 027e C09A      		sbi 56-32,0
 525               	/* epilogue start */
 526               	.LM33:
 527 0280 0895      		ret
 528               	.LFE8:
 530               	.global	_ZN3LCD10write_modeEv
 532               	_ZN3LCD10write_modeEv:
 533               	.LFB9:
 534               	.LM34:
 535               	.LVL62:
 536               	/* prologue: function */
 537               	/* frame size = 0 */
 538               	.LM35:
 539 0282 C198      		cbi 56-32,1
 540               	/* epilogue start */
 541               	.LM36:
 542 0284 0895      		ret
 543               	.LFE9:
 545               	.global	_ZN3LCD9read_modeEv
 547               	_ZN3LCD9read_modeEv:
 548               	.LFB10:
 549               	.LM37:
 550               	.LVL63:
 551               	/* prologue: function */
 552               	/* frame size = 0 */
 553               	.LM38:
 554 0286 C19A      		sbi 56-32,1
 555               	/* epilogue start */
 556               	.LM39:
 557 0288 0895      		ret
 558               	.LFE10:
 560               	.global	_ZN3LCD6EnableEv
 562               	_ZN3LCD6EnableEv:
 563               	.LFB11:
 564               	.LM40:
 565               	.LVL64:
 566 028a 1F93      		push r17
 567 028c DF93      		push r29
 568 028e CF93      		push r28
 569 0290 CDB7      		in r28,__SP_L__
 570 0292 DEB7      		in r29,__SP_H__
 571 0294 2897      		sbiw r28,8
 572 0296 0FB6      		in __tmp_reg__,__SREG__
 573 0298 F894      		cli
 574 029a DEBF      		out __SP_H__,r29
 575 029c 0FBE      		out __SREG__,__tmp_reg__
 576 029e CDBF      		out __SP_L__,r28
 577               	/* prologue: function */
 578               	/* frame size = 8 */
 579               	.LBB20:
 580               	.LBB21:
 581               	.LBB22:
 582               	.LM41:
 583 02a0 1982      		std Y+1,__zero_reg__
 584               	.LVL65:
 585 02a2 1A82      		std Y+2,__zero_reg__
 586               	.LVL66:
 587 02a4 1B82      		std Y+3,__zero_reg__
 588               	.LVL67:
 589 02a6 1C82      		std Y+4,__zero_reg__
 590               	.LVL68:
 591 02a8 1D82      		std Y+5,__zero_reg__
 592               	.LVL69:
 593 02aa 1E82      		std Y+6,__zero_reg__
 594               	.LVL70:
 595 02ac 1F82      		std Y+7,__zero_reg__
 596               	.LVL71:
 597 02ae 1886      		std Y+8,__zero_reg__
 598               	.LVL72:
 599 02b0 00C0      		rjmp .L68
 600               	.LVL73:
 601               	.L86:
 602 02b2 8981      		ldd r24,Y+1
 603 02b4 2A81      		ldd r18,Y+2
 604 02b6 3B81      		ldd r19,Y+3
 605 02b8 4C81      		ldd r20,Y+4
 606 02ba 6D81      		ldd r22,Y+5
 607 02bc EE81      		ldd r30,Y+6
 608 02be AF81      		ldd r26,Y+7
 609 02c0 1885      		ldd r17,Y+8
 610 02c2 B82F      		mov r27,r24
 611 02c4 BF5F      		subi r27,lo8(-(1))
 612 02c6 91E0      		ldi r25,lo8(1)
 613 02c8 B817      		cp r27,r24
 614 02ca 00F0      		brlo .L69
 615 02cc 90E0      		ldi r25,lo8(0)
 616               	.L69:
 617 02ce F92F      		mov r31,r25
 618 02d0 F20F      		add r31,r18
 619 02d2 81E0      		ldi r24,lo8(1)
 620 02d4 F217      		cp r31,r18
 621 02d6 00F0      		brlo .L71
 622 02d8 80E0      		ldi r24,lo8(0)
 623               	.L71:
 624 02da 782F      		mov r23,r24
 625 02dc 730F      		add r23,r19
 626 02de 81E0      		ldi r24,lo8(1)
 627 02e0 7317      		cp r23,r19
 628 02e2 00F0      		brlo .L73
 629 02e4 80E0      		ldi r24,lo8(0)
 630               	.L73:
 631 02e6 582F      		mov r21,r24
 632 02e8 540F      		add r21,r20
 633 02ea 81E0      		ldi r24,lo8(1)
 634 02ec 5417      		cp r21,r20
 635 02ee 00F0      		brlo .L75
 636 02f0 80E0      		ldi r24,lo8(0)
 637               	.L75:
 638 02f2 382F      		mov r19,r24
 639 02f4 360F      		add r19,r22
 640 02f6 81E0      		ldi r24,lo8(1)
 641 02f8 3617      		cp r19,r22
 642 02fa 00F0      		brlo .L77
 643 02fc 80E0      		ldi r24,lo8(0)
 644               	.L77:
 645 02fe 282F      		mov r18,r24
 646 0300 2E0F      		add r18,r30
 647 0302 81E0      		ldi r24,lo8(1)
 648 0304 2E17      		cp r18,r30
 649 0306 00F0      		brlo .L79
 650 0308 80E0      		ldi r24,lo8(0)
 651               	.L79:
 652 030a 982F      		mov r25,r24
 653 030c 9A0F      		add r25,r26
 654 030e 81E0      		ldi r24,lo8(1)
 655 0310 9A17      		cp r25,r26
 656 0312 00F0      		brlo .L81
 657 0314 80E0      		ldi r24,lo8(0)
 658               	.L81:
 659 0316 810F      		add r24,r17
 660 0318 B983      		std Y+1,r27
 661               	.LVL74:
 662 031a FA83      		std Y+2,r31
 663               	.LVL75:
 664 031c 7B83      		std Y+3,r23
 665               	.LVL76:
 666 031e 5C83      		std Y+4,r21
 667               	.LVL77:
 668 0320 3D83      		std Y+5,r19
 669               	.LVL78:
 670 0322 2E83      		std Y+6,r18
 671               	.LVL79:
 672 0324 9F83      		std Y+7,r25
 673               	.LVL80:
 674 0326 8887      		std Y+8,r24
 675               	.LVL81:
 676               	.L68:
 677 0328 7981      		ldd r23,Y+1
 678 032a 6A81      		ldd r22,Y+2
 679 032c 5B81      		ldd r21,Y+3
 680 032e 4C81      		ldd r20,Y+4
 681 0330 3D81      		ldd r19,Y+5
 682 0332 2E81      		ldd r18,Y+6
 683 0334 9F81      		ldd r25,Y+7
 684 0336 8885      		ldd r24,Y+8
 685               	.LVL82:
 686 0338 8823      		tst r24
 687 033a 01F4      		brne .L85
 688 033c 9923      		tst r25
 689 033e 01F4      		brne .L85
 690 0340 2223      		tst r18
 691 0342 01F4      		brne .L85
 692 0344 3323      		tst r19
 693 0346 01F4      		brne .L85
 694 0348 4423      		tst r20
 695 034a 01F4      		brne .L85
 696 034c 5523      		tst r21
 697 034e 01F4      		brne .L85
 698 0350 6623      		tst r22
 699 0352 01F4      		brne .L85
 700 0354 7436      		cpi r23,lo8(100)
 701 0356 00F4      		brsh .+2
 702 0358 00C0      		rjmp .L86
 703               	.L85:
 704               	.LBE22:
 705               	.LBE21:
 706               	.LBE20:
 707               	.LM42:
 708 035a C29A      		sbi 56-32,2
 709               	/* epilogue start */
 710               	.LM43:
 711 035c 2896      		adiw r28,8
 712 035e 0FB6      		in __tmp_reg__,__SREG__
 713 0360 F894      		cli
 714 0362 DEBF      		out __SP_H__,r29
 715 0364 0FBE      		out __SREG__,__tmp_reg__
 716 0366 CDBF      		out __SP_L__,r28
 717 0368 CF91      		pop r28
 718 036a DF91      		pop r29
 719 036c 1F91      		pop r17
 720 036e 0895      		ret
 721               	.LFE11:
 723               	.global	_ZN3LCD14send_characterEc
 725               	_ZN3LCD14send_characterEc:
 726               	.LFB12:
 727               	.LM44:
 728               	.LVL83:
 729 0370 FF92      		push r15
 730 0372 0F93      		push r16
 731 0374 1F93      		push r17
 732               	/* prologue: function */
 733               	/* frame size = 0 */
 734 0376 8C01      		movw r16,r24
 735 0378 F62E      		mov r15,r22
 736               	.LBB23:
 737               	.LBB24:
 738               	.LM45:
 739 037a C198      		cbi 56-32,1
 740               	.LBE24:
 741               	.LBE23:
 742               	.LBB25:
 743               	.LBB26:
 744               	.LM46:
 745 037c C09A      		sbi 56-32,0
 746               	.LBE26:
 747               	.LBE25:
 748               	.LM47:
 749 037e 0E94 0000 		call _ZN3LCD6EnableEv
 750               	.LVL84:
 751               	.LM48:
 752 0382 C801      		movw r24,r16
 753 0384 6F2D      		mov r22,r15
 754 0386 0E94 0000 		call _ZN3LCD22send_character_to_pinsEc
 755               	/* epilogue start */
 756               	.LM49:
 757 038a 1F91      		pop r17
 758 038c 0F91      		pop r16
 759               	.LVL85:
 760 038e FF90      		pop r15
 761               	.LVL86:
 762 0390 0895      		ret
 763               	.LFE12:
 765               	.global	_ZN3LCD16send_instructionEc
 767               	_ZN3LCD16send_instructionEc:
 768               	.LFB13:
 769               	.LM50:
 770               	.LVL87:
 771 0392 FF92      		push r15
 772 0394 0F93      		push r16
 773 0396 1F93      		push r17
 774               	/* prologue: function */
 775               	/* frame size = 0 */
 776 0398 8C01      		movw r16,r24
 777 039a F62E      		mov r15,r22
 778               	.LBB27:
 779               	.LBB28:
 780               	.LM51:
 781 039c C098      		cbi 56-32,0
 782               	.LBE28:
 783               	.LBE27:
 784               	.LBB29:
 785               	.LBB30:
 786               	.LM52:
 787 039e C198      		cbi 56-32,1
 788               	.LBE30:
 789               	.LBE29:
 790               	.LM53:
 791 03a0 0E94 0000 		call _ZN3LCD6EnableEv
 792               	.LVL88:
 793               	.LM54:
 794 03a4 C801      		movw r24,r16
 795 03a6 6F2D      		mov r22,r15
 796 03a8 0E94 0000 		call _ZN3LCD22send_character_to_pinsEc
 797               	/* epilogue start */
 798               	.LM55:
 799 03ac 1F91      		pop r17
 800 03ae 0F91      		pop r16
 801               	.LVL89:
 802 03b0 FF90      		pop r15
 803               	.LVL90:
 804 03b2 0895      		ret
 805               	.LFE13:
 807               	.global	_ZN3LCD10initializeEv
 809               	_ZN3LCD10initializeEv:
 810               	.LFB14:
 811               	.LM56:
 812               	.LVL91:
 813 03b4 0F93      		push r16
 814 03b6 1F93      		push r17
 815               	/* prologue: function */
 816               	/* frame size = 0 */
 817 03b8 8C01      		movw r16,r24
 818               	.LM57:
 819 03ba 8E9A      		sbi 49-32,6
 820               	.LM58:
 821 03bc 8F9A      		sbi 49-32,7
 822               	.LM59:
 823 03be A29A      		sbi 52-32,2
 824               	.LM60:
 825 03c0 A39A      		sbi 52-32,3
 826               	.LM61:
 827 03c2 A49A      		sbi 52-32,4
 828               	.LM62:
 829 03c4 A59A      		sbi 52-32,5
 830               	.LM63:
 831 03c6 A69A      		sbi 52-32,6
 832               	.LM64:
 833 03c8 A79A      		sbi 52-32,7
 834               	.LM65:
 835 03ca BA9A      		sbi 55-32,2
 836               	.LM66:
 837 03cc B89A      		sbi 55-32,0
 838               	.LM67:
 839 03ce B99A      		sbi 55-32,1
 840               	.LM68:
 841 03d0 9698      		cbi 50-32,6
 842               	.LM69:
 843 03d2 9798      		cbi 50-32,7
 844               	.LM70:
 845 03d4 AA98      		cbi 53-32,2
 846               	.LM71:
 847 03d6 AB98      		cbi 53-32,3
 848               	.LM72:
 849 03d8 AC98      		cbi 53-32,4
 850               	.LM73:
 851 03da AD98      		cbi 53-32,5
 852               	.LM74:
 853 03dc AE98      		cbi 53-32,6
 854               	.LM75:
 855 03de AF98      		cbi 53-32,7
 856               	.LM76:
 857 03e0 C298      		cbi 56-32,2
 858               	.LM77:
 859 03e2 C098      		cbi 56-32,0
 860               	.LM78:
 861 03e4 C198      		cbi 56-32,1
 862               	.LM79:
 863 03e6 68E3      		ldi r22,lo8(56)
 864 03e8 0E94 0000 		call _ZN3LCD16send_instructionEc
 865               	.LVL92:
 866               	.LM80:
 867 03ec C801      		movw r24,r16
 868 03ee 6EE0      		ldi r22,lo8(14)
 869 03f0 0E94 0000 		call _ZN3LCD16send_instructionEc
 870               	.LM81:
 871 03f4 C801      		movw r24,r16
 872 03f6 66E0      		ldi r22,lo8(6)
 873 03f8 0E94 0000 		call _ZN3LCD16send_instructionEc
 874               	.LM82:
 875 03fc C801      		movw r24,r16
 876 03fe 60E8      		ldi r22,lo8(-128)
 877 0400 0E94 0000 		call _ZN3LCD16send_instructionEc
 878               	.LM83:
 879 0404 C801      		movw r24,r16
 880 0406 61E0      		ldi r22,lo8(1)
 881 0408 0E94 0000 		call _ZN3LCD16send_instructionEc
 882               	.LM84:
 883 040c C801      		movw r24,r16
 884 040e 6CE0      		ldi r22,lo8(12)
 885 0410 0E94 0000 		call _ZN3LCD16send_instructionEc
 886               	/* epilogue start */
 887               	.LM85:
 888 0414 1F91      		pop r17
 889 0416 0F91      		pop r16
 890               	.LVL93:
 891 0418 0895      		ret
 892               	.LFE14:
 894               	.global	_ZN3LCD5clearEv
 896               	_ZN3LCD5clearEv:
 897               	.LFB15:
 898               	.LM86:
 899               	.LVL94:
 900               	/* prologue: function */
 901               	/* frame size = 0 */
 902               	.LM87:
 903 041a 61E0      		ldi r22,lo8(1)
 904 041c 0E94 0000 		call _ZN3LCD16send_instructionEc
 905               	.LVL95:
 906               	/* epilogue start */
 907               	.LM88:
 908 0420 0895      		ret
 909               	.LFE15:
 911               	.global	_ZN3LCD8new_lineEv
 913               	_ZN3LCD8new_lineEv:
 914               	.LFB16:
 915               	.LM89:
 916               	.LVL96:
 917               	/* prologue: function */
 918               	/* frame size = 0 */
 919               	.LM90:
 920 0422 60EC      		ldi r22,lo8(-64)
 921 0424 0E94 0000 		call _ZN3LCD16send_instructionEc
 922               	.LVL97:
 923               	/* epilogue start */
 924               	.LM91:
 925 0428 0895      		ret
 926               	.LFE16:
 928               	.global	_ZN3LCD11send_stringEPc
 930               	_ZN3LCD11send_stringEPc:
 931               	.LFB17:
 932               	.LM92:
 933               	.LVL98:
 934 042a 0F93      		push r16
 935 042c 1F93      		push r17
 936 042e CF93      		push r28
 937 0430 DF93      		push r29
 938               	/* prologue: function */
 939               	/* frame size = 0 */
 940 0432 8C01      		movw r16,r24
 941 0434 EB01      		movw r28,r22
 942 0436 00C0      		rjmp .L98
 943               	.LVL99:
 944               	.L99:
 945               	.LM93:
 946 0438 C801      		movw r24,r16
 947 043a 0E94 0000 		call _ZN3LCD14send_characterEc
 948 043e 2196      		adiw r28,1
 949               	.LVL100:
 950               	.L98:
 951 0440 6881      		ld r22,Y
 952 0442 6623      		tst r22
 953 0444 01F4      		brne .L99
 954               	/* epilogue start */
 955               	.LM94:
 956 0446 DF91      		pop r29
 957 0448 CF91      		pop r28
 958               	.LVL101:
 959 044a 1F91      		pop r17
 960 044c 0F91      		pop r16
 961               	.LVL102:
 962 044e 0895      		ret
 963               	.LFE17:
 1101               	.Letext0:
DEFINED SYMBOLS
                            *ABS*:00000000 LCD.cpp
C:\Users\jacka\AppData\Local\Temp/ccYCjnoY.s:2      *ABS*:0000003f __SREG__
C:\Users\jacka\AppData\Local\Temp/ccYCjnoY.s:3      *ABS*:0000003e __SP_H__
C:\Users\jacka\AppData\Local\Temp/ccYCjnoY.s:4      *ABS*:0000003d __SP_L__
C:\Users\jacka\AppData\Local\Temp/ccYCjnoY.s:5      *ABS*:00000034 __CCP__
C:\Users\jacka\AppData\Local\Temp/ccYCjnoY.s:6      *ABS*:00000000 __tmp_reg__
C:\Users\jacka\AppData\Local\Temp/ccYCjnoY.s:7      *ABS*:00000001 __zero_reg__
C:\Users\jacka\AppData\Local\Temp/ccYCjnoY.s:18     .text:00000000 _ZN3LCDC2Ev
C:\Users\jacka\AppData\Local\Temp/ccYCjnoY.s:31     .text:00000002 _ZN3LCDC1Ev
C:\Users\jacka\AppData\Local\Temp/ccYCjnoY.s:44     .text:00000004 _ZN3LCD22send_character_to_pinsEc
C:\Users\jacka\AppData\Local\Temp/ccYCjnoY.s:283    .text:0000013c _ZN3LCD5delayEy
C:\Users\jacka\AppData\Local\Temp/ccYCjnoY.s:502    .text:0000027a _ZN3LCD12command_modeEv
C:\Users\jacka\AppData\Local\Temp/ccYCjnoY.s:517    .text:0000027e _ZN3LCD14character_modeEv
C:\Users\jacka\AppData\Local\Temp/ccYCjnoY.s:532    .text:00000282 _ZN3LCD10write_modeEv
C:\Users\jacka\AppData\Local\Temp/ccYCjnoY.s:547    .text:00000286 _ZN3LCD9read_modeEv
C:\Users\jacka\AppData\Local\Temp/ccYCjnoY.s:562    .text:0000028a _ZN3LCD6EnableEv
C:\Users\jacka\AppData\Local\Temp/ccYCjnoY.s:725    .text:00000370 _ZN3LCD14send_characterEc
C:\Users\jacka\AppData\Local\Temp/ccYCjnoY.s:767    .text:00000392 _ZN3LCD16send_instructionEc
C:\Users\jacka\AppData\Local\Temp/ccYCjnoY.s:809    .text:000003b4 _ZN3LCD10initializeEv
C:\Users\jacka\AppData\Local\Temp/ccYCjnoY.s:896    .text:0000041a _ZN3LCD5clearEv
C:\Users\jacka\AppData\Local\Temp/ccYCjnoY.s:913    .text:00000422 _ZN3LCD8new_lineEv
C:\Users\jacka\AppData\Local\Temp/ccYCjnoY.s:930    .text:0000042a _ZN3LCD11send_stringEPc

NO UNDEFINED SYMBOLS
